target datalayout = "e-m:e-p270:32:32-p271:32:32-p272:64:64-i64:64-i128:128-f80:128-n8:16:32:64-S128"
target triple = "x86_64-pc-linux-gnu"

%struct.PerfMapState = type { ptr, ptr }

@perf_map_state = internal global %struct.PerfMapState zeroinitializer, align 8
@.str.11 = private unnamed_addr constant [11 x i8] c"%lx %x %s\0A\00", align 1

; Function Attrs: nounwind uwtable
define dso_local i32 @PyUnstable_WritePerfMapEntry(ptr noundef %0, i32 noundef %1, ptr noundef %2) #0 {
  %4 = alloca i32, align 4
  %5 = alloca ptr, align 8
  %6 = alloca i32, align 4
  %7 = alloca ptr, align 8
  %8 = alloca i32, align 4
  %9 = alloca i32, align 4
  store ptr %0, ptr %5, align 8, !tbaa !212
  store i32 %1, ptr %6, align 4, !tbaa !97
  store ptr %2, ptr %7, align 8, !tbaa !94
  %10 = load ptr, ptr @perf_map_state, align 8, !tbaa !217
  %11 = icmp eq ptr %10, null
  br i1 %11, label %12, label %22

12:                                               ; preds = %3
  call void @llvm.lifetime.start.p0(i64 4, ptr %8) #12
  %13 = call i32 @PyUnstable_PerfMapState_Init()
  store i32 %13, ptr %8, align 4, !tbaa !97
  %14 = load i32, ptr %8, align 4, !tbaa !97
  %15 = icmp ne i32 %14, 0
  br i1 %15, label %16, label %18

16:                                               ; preds = %12
  %17 = load i32, ptr %8, align 4, !tbaa !97
  store i32 %17, ptr %4, align 4
  store i32 1, ptr %9, align 4
  br label %19

18:                                               ; preds = %12
  store i32 0, ptr %9, align 4
  br label %19

19:                                               ; preds = %18, %16
  call void @llvm.lifetime.end.p0(i64 4, ptr %8) #12
  %20 = load i32, ptr %9, align 4
  switch i32 %20, label %36 [
    i32 0, label %21
    i32 1, label %34
  ]

21:                                               ; preds = %19
  br label %22

22:                                               ; preds = %21, %3
  %23 = load ptr, ptr getelementptr inbounds nuw (%struct.PerfMapState, ptr @perf_map_state, i32 0, i32 1), align 8, !tbaa !219
  %24 = call i32 @PyThread_acquire_lock(ptr noundef %23, i32 noundef 1)
  %25 = load ptr, ptr @perf_map_state, align 8, !tbaa !217
  %26 = load ptr, ptr %5, align 8, !tbaa !212
  %27 = ptrtoint ptr %26 to i64
  %28 = load i32, ptr %6, align 4, !tbaa !97
  %29 = load ptr, ptr %7, align 8, !tbaa !94
  %30 = call i32 (ptr, ptr, ...) @fprintf(ptr noundef %25, ptr noundef @.str.11, i64 noundef %27, i32 noundef %28, ptr noundef %29) #12
  %31 = load ptr, ptr @perf_map_state, align 8, !tbaa !217
  %32 = call i32 @fflush(ptr noundef %31)
  %33 = load ptr, ptr getelementptr inbounds nuw (%struct.PerfMapState, ptr @perf_map_state, i32 0, i32 1), align 8, !tbaa !219
  call void @PyThread_release_lock(ptr noundef %33)
  store i32 0, ptr %4, align 4
  br label %34

34:                                               ; preds = %22, %19
  %35 = load i32, ptr %4, align 4
  ret i32 %35

36:                                               ; preds = %19
  unreachable
}