; Function Attrs: nounwind uwtable
define dso_local range(i32 -2, 1) i32 @PyUnstable_WritePerfMapEntry(ptr noundef %0, i32 noundef %1, ptr noundef %2) local_unnamed_addr #0 {
  %4 = load ptr, ptr @perf_map_state.0, align 8, !tbaa !203
  %5 = icmp eq ptr %4, null
  br i1 %5, label %6, label %8

6:                                                ; preds = %3
  %7 = tail call i32 @PyUnstable_PerfMapState_Init()
  %.not.not = icmp eq i32 %7, 0
  br i1 %.not.not, label %8, label %17

8:                                                ; preds = %6, %3
  %9 = load ptr, ptr @perf_map_state.1, align 8, !tbaa !205
  %10 = tail call i32 @PyThread_acquire_lock(ptr noundef %9, i32 noundef 1) #15
  %11 = load ptr, ptr @perf_map_state.0, align 8, !tbaa !203
  %12 = ptrtoint ptr %0 to i64
  %13 = tail call i32 (ptr, ptr, ...) @fprintf(ptr noundef %11, ptr noundef nonnull @.str.11, i64 noundef %12, i32 noundef %1, ptr noundef %2) #15
  %14 = load ptr, ptr @perf_map_state.0, align 8, !tbaa !203
  %15 = tail call i32 @fflush(ptr noundef %14)
  %16 = load ptr, ptr @perf_map_state.1, align 8, !tbaa !205
  tail call void @PyThread_release_lock(ptr noundef %16) #15
  br label %17

17:                                               ; preds = %6, %8
  %.1 = phi i32 [ %7, %6 ], [ 0, %8 ]
  ret i32 %.1
}